target datalayout = "e-m:e-p270:32:32-p271:32:32-p272:64:64-i64:64-i128:128-f80:128-n8:16:32:64-S128"
target triple = "x86_64-pc-linux-gnu"

%struct.hs_database = type { i32, i32, i32, i64, i32, i32, i32, i32, [16 x i32], [0 x i8] }

; Function Attrs: nounwind uwtable
define internal i32 @db_check_crc(ptr noundef %0) #0 {
  %2 = alloca i32, align 4
  %3 = alloca ptr, align 8
  %4 = alloca ptr, align 8
  %5 = alloca i32, align 4
  %6 = alloca i32, align 4
  store ptr %0, ptr %3, align 8
  call void @llvm.lifetime.start.p0(i64 8, ptr %4) #8
  %7 = load ptr, ptr %3, align 8
  %8 = call ptr @hs_get_bytecode(ptr noundef %7)
  store ptr %8, ptr %4, align 8
  call void @llvm.lifetime.start.p0(i64 4, ptr %5) #8
  %9 = load ptr, ptr %4, align 8
  %10 = load ptr, ptr %3, align 8
  %11 = getelementptr inbounds nuw %struct.hs_database, ptr %10, i32 0, i32 2
  %12 = load i32, ptr %11, align 8
  %13 = zext i32 %12 to i64
  %14 = call i32 @Crc32c_ComputeBuf(i32 noundef 0, ptr noundef %9, i64 noundef %13)
  store i32 %14, ptr %5, align 4
  %15 = load i32, ptr %5, align 4
  %16 = load ptr, ptr %3, align 8
  %17 = getelementptr inbounds nuw %struct.hs_database, ptr %16, i32 0, i32 4
  %18 = load i32, ptr %17, align 8
  %19 = icmp ne i32 %15, %18
  br i1 %19, label %20, label %24

20:                                               ; preds = %1
  br label %21

21:                                               ; preds = %20
  br label %22

22:                                               ; preds = %21
  br label %23

23:                                               ; preds = %22
  store i32 -1, ptr %2, align 4
  store i32 1, ptr %6, align 4
  br label %25

24:                                               ; preds = %1
  store i32 0, ptr %2, align 4
  store i32 1, ptr %6, align 4
  br label %25

25:                                               ; preds = %24, %23
  call void @llvm.lifetime.end.p0(i64 4, ptr %5) #8
  call void @llvm.lifetime.end.p0(i64 8, ptr %4) #8
  %26 = load i32, ptr %2, align 4
  ret i32 %26
}

; Function Attrs: alwaysinline nounwind uwtable
define internal ptr @hs_get_bytecode(ptr noundef %0) #1 {
  %2 = alloca ptr, align 8
  store ptr %0, ptr %2, align 8
  %3 = load ptr, ptr %2, align 8
  %4 = load ptr, ptr %2, align 8
  %5 = getelementptr inbounds nuw %struct.hs_database, ptr %4, i32 0, i32 7
  %6 = load i32, ptr %5, align 4
  %7 = zext i32 %6 to i64
  %8 = getelementptr inbounds nuw i8, ptr %3, i64 %7
  ret ptr %8
}

; Function Attrs: nounwind uwtable
define internal i32 @db_check_platform(i64 noundef %0) #0 {
  %2 = alloca i32, align 4
  %3 = alloca i64, align 8
  store i64 %0, ptr %3, align 8
  %4 = load i64, ptr %3, align 8
  %5 = icmp ne i64 %4, 196608
  br i1 %5, label %6, label %16

6:                                                ; preds = %1
  %7 = load i64, ptr %3, align 8
  %8 = icmp ne i64 %7, 229376
  br i1 %8, label %9, label %16

9:                                                ; preds = %6
  %10 = load i64, ptr %3, align 8
  %11 = icmp ne i64 %10, 196608
  br i1 %11, label %12, label %16

12:                                               ; preds = %9
  %13 = load i64, ptr %3, align 8
  %14 = icmp ne i64 %13, 196608
  br i1 %14, label %15, label %16

15:                                               ; preds = %12
  store i32 -6, ptr %2, align 4
  br label %17

16:                                               ; preds = %12, %9, %6, %1
  store i32 0, ptr %2, align 4
  br label %17

17:                                               ; preds = %16, %15
  %18 = load i32, ptr %2, align 4
  ret i32 %18
}

; Function Attrs: nounwind uwtable
define hidden i32 @dbIsValid(ptr noundef %0) #0 {
  %2 = alloca i32, align 4
  %3 = alloca ptr, align 8
  %4 = alloca i32, align 4
  %5 = alloca i32, align 4
  store ptr %0, ptr %3, align 8
  %6 = load ptr, ptr %3, align 8
  %7 = getelementptr inbounds nuw %struct.hs_database, ptr %6, i32 0, i32 0
  %8 = load i32, ptr %7, align 8
  %9 = icmp ne i32 %8, -606348325
  br i1 %9, label %10, label %13

10:                                               ; preds = %1
  br label %11

11:                                               ; preds = %10
  br label %12

12:                                               ; preds = %11
  store i32 -1, ptr %2, align 4
  br label %51

13:                                               ; preds = %1
  %14 = load ptr, ptr %3, align 8
  %15 = getelementptr inbounds nuw %struct.hs_database, ptr %14, i32 0, i32 1
  %16 = load i32, ptr %15, align 4
  %17 = icmp ne i32 %16, 84148736
  br i1 %17, label %18, label %21

18:                                               ; preds = %13
  br label %19

19:                                               ; preds = %18
  br label %20

20:                                               ; preds = %19
  store i32 -5, ptr %2, align 4
  br label %51

21:                                               ; preds = %13
  %22 = load ptr, ptr %3, align 8
  %23 = getelementptr inbounds nuw %struct.hs_database, ptr %22, i32 0, i32 3
  %24 = load i64, ptr %23, align 8
  %25 = call i32 @db_check_platform(i64 noundef %24)
  %26 = icmp ne i32 %25, 0
  br i1 %26, label %27, label %30

27:                                               ; preds = %21
  br label %28

28:                                               ; preds = %27
  br label %29

29:                                               ; preds = %28
  store i32 -6, ptr %2, align 4
  br label %51

30:                                               ; preds = %21
  %31 = load ptr, ptr %3, align 8
  %32 = call ptr @hs_get_bytecode(ptr noundef %31)
  %33 = ptrtoint ptr %32 to i64
  %34 = and i64 %33, 15
  %35 = icmp eq i64 %34, 0
  br i1 %35, label %39, label %36

36:                                               ; preds = %30
  br label %37

37:                                               ; preds = %36
  br label %38

38:                                               ; preds = %37
  store i32 -1, ptr %2, align 4
  br label %51

39:                                               ; preds = %30
  call void @llvm.lifetime.start.p0(i64 4, ptr %4) #8
  %40 = load ptr, ptr %3, align 8
  %41 = call i32 @db_check_crc(ptr noundef %40)
  store i32 %41, ptr %4, align 4
  %42 = load i32, ptr %4, align 4
  %43 = icmp ne i32 %42, 0
  br i1 %43, label %44, label %49

44:                                               ; preds = %39
  br label %45

45:                                               ; preds = %44
  br label %46

46:                                               ; preds = %45
  br label %47

47:                                               ; preds = %46
  %48 = load i32, ptr %4, align 4
  store i32 %48, ptr %2, align 4
  store i32 1, ptr %5, align 4
  br label %50

49:                                               ; preds = %39
  store i32 0, ptr %2, align 4
  store i32 1, ptr %5, align 4
  br label %50

50:                                               ; preds = %49, %47
  call void @llvm.lifetime.end.p0(i64 4, ptr %4) #8
  br label %51

51:                                               ; preds = %50, %38, %29, %20, %12
  %52 = load i32, ptr %2, align 4
  ret i32 %52
}