; Function Attrs: nounwind uwtable
define hidden range(i32 -6, 1) i32 @dbIsValid(ptr noundef %0) local_unnamed_addr #0 {
  %2 = load i32, ptr %0, align 8
  %.not = icmp eq i32 %2, -606348325
  br i1 %.not, label %3, label %25

3:                                                ; preds = %1
  %4 = getelementptr inbounds nuw i8, ptr %0, i64 4
  %5 = load i32, ptr %4, align 4
  %.not8 = icmp eq i32 %5, 84148736
  br i1 %.not8, label %6, label %25

6:                                                ; preds = %3
  %7 = getelementptr inbounds nuw i8, ptr %0, i64 16
  %8 = load i64, ptr %7, align 8
  %9 = and i64 %8, -32769
  %or.cond.not.i = icmp eq i64 %9, 196608
  br i1 %or.cond.not.i, label %10, label %25

10:                                               ; preds = %6
  %11 = getelementptr inbounds nuw i8, ptr %0, i64 36
  %12 = load i32, ptr %11, align 4
  %13 = zext i32 %12 to i64
  %14 = getelementptr inbounds nuw i8, ptr %0, i64 %13
  %15 = ptrtoint ptr %14 to i64
  %16 = and i64 %15, 15
  %17 = icmp eq i64 %16, 0
  br i1 %17, label %18, label %25

18:                                               ; preds = %10
  %19 = getelementptr inbounds nuw i8, ptr %0, i64 8
  %20 = load i32, ptr %19, align 8
  %21 = zext i32 %20 to i64
  %22 = tail call i32 @Crc32c_ComputeBuf(i32 noundef 0, ptr noundef nonnull %14, i64 noundef %21) #6
  %23 = getelementptr inbounds nuw i8, ptr %0, i64 24
  %24 = load i32, ptr %23, align 8
  %.not.i = icmp ne i32 %22, %24
  %..i11 = sext i1 %.not.i to i32
  br label %25

25:                                               ; preds = %10, %6, %3, %1, %18
  %.0 = phi i32 [ %..i11, %18 ], [ -1, %1 ], [ -5, %3 ], [ -6, %6 ], [ -1, %10 ]
  ret i32 %.0
}